target datalayout = "e-m:e-p270:32:32-p271:32:32-p272:64:64-i64:64-i128:128-f80:128-n8:16:32:64-S128"
target triple = "x86_64-pc-linux-gnu"

%struct.expert_field = type { i32, i32 }
%struct._packet_info = type { ptr, ptr, i32, i32, %struct.nstime_t, %struct.nstime_t, %struct.nstime_t, i8, ptr, ptr, ptr, ptr, %struct._address, %struct._address, %struct._address, %struct._address, %struct._address, %struct._address, i32, ptr, i8, [3 x i8], %struct.anon, i32, i32, i32, i32, ptr, i8, ptr, ptr, i16, i16, i32, i32, i16, i32, i32, ptr, ptr, ptr, i8, i8, i16, i16, i16, i32, i16, i16, ptr, ptr, ptr, ptr, ptr, i32, i32 }
%struct.nstime_t = type { i64, i32 }
%struct._address = type { i32, i32, ptr, ptr }
%struct.anon = type { i8, [3 x i8] }

@.str = private unnamed_addr constant [40 x i8] c"Locamation Interface Module CALIBRATION\00", align 1
@.str.1 = private unnamed_addr constant [12 x i8] c"CALIBRATION\00", align 1
@h_protocol_calibration = internal global i32 -1, align 4
@ett_protocol_calibration = internal global i32 0, align 4
@ett_calibration_lines = internal global i32 0, align 4
@hf_calibration_sequence_number = internal global i32 0, align 4
@hf_calibration_first_sequence_number = internal global i32 0, align 4
@hf_calibration_last_sequence_number = internal global i32 0, align 4
@hf_calibration_name = internal global i32 0, align 4
@hf_calibration_name_line = internal global i32 0, align 4
@hf_calibration_chunk = internal global i32 0, align 4
@hf_calibration_chunk_line = internal global i32 0, align 4
@ei_calibration_header = internal global %struct.expert_field zeroinitializer, align 4

; Function Attrs: null_pointer_is_valid sspstrong uwtable
define internal i32 @dissect_calibration(ptr noundef %0, ptr noundef %1, ptr noundef %2, ptr noundef %3) #0 {
  %5 = alloca ptr, align 8
  %6 = alloca ptr, align 8
  %7 = alloca ptr, align 8
  %8 = alloca ptr, align 8
  %9 = alloca ptr, align 8
  %10 = alloca ptr, align 8
  %11 = alloca i32, align 4
  %12 = alloca i32, align 4
  %13 = alloca i16, align 2
  %14 = alloca i32, align 4
  %15 = alloca ptr, align 8
  %16 = alloca ptr, align 8
  %17 = alloca i32, align 4
  %18 = alloca ptr, align 8
  %19 = alloca ptr, align 8
  store ptr %0, ptr %5, align 8
  store ptr %1, ptr %6, align 8
  store ptr %2, ptr %7, align 8
  store ptr %3, ptr %8, align 8
  %20 = load ptr, ptr %6, align 8
  %21 = getelementptr inbounds nuw %struct._packet_info, ptr %20, i32 0, i32 1
  %22 = load ptr, ptr %21, align 8
  call void @col_set_str(ptr noundef %22, i32 noundef 35, ptr noundef @.str.1)
  %23 = load ptr, ptr %6, align 8
  %24 = getelementptr inbounds nuw %struct._packet_info, ptr %23, i32 0, i32 1
  %25 = load ptr, ptr %24, align 8
  call void @col_set_str(ptr noundef %25, i32 noundef 25, ptr noundef @.str)
  call void @llvm.lifetime.start.p0(i64 8, ptr %9) #6
  %26 = load ptr, ptr %7, align 8
  %27 = load i32, ptr @h_protocol_calibration, align 4
  %28 = load ptr, ptr %5, align 8
  %29 = call ptr @proto_tree_add_item(ptr noundef %26, i32 noundef %27, ptr noundef %28, i32 noundef 0, i32 noundef -1, i32 noundef 0)
  store ptr %29, ptr %9, align 8
  call void @llvm.lifetime.start.p0(i64 8, ptr %10) #6
  %30 = load ptr, ptr %9, align 8
  %31 = load i32, ptr @ett_protocol_calibration, align 4
  %32 = call ptr @proto_item_add_subtree(ptr noundef %30, i32 noundef %31)
  store ptr %32, ptr %10, align 8
  call void @llvm.lifetime.start.p0(i64 4, ptr %11) #6
  store i32 0, ptr %11, align 4
  call void @llvm.lifetime.start.p0(i64 4, ptr %12) #6
  store i32 2, ptr %12, align 4
  %33 = load ptr, ptr %5, align 8
  %34 = load i32, ptr %11, align 4
  %35 = load i32, ptr %12, align 4
  call void @tvb_ensure_bytes_exist(ptr noundef %33, i32 noundef %34, i32 noundef %35)
  call void @llvm.lifetime.start.p0(i64 2, ptr %13) #6
  %36 = load ptr, ptr %5, align 8
  %37 = call zeroext i16 @tvb_get_uint16(ptr noundef %36, i32 noundef 0, i32 noundef 0)
  store i16 %37, ptr %13, align 2
  %38 = load i16, ptr %13, align 2
  %39 = zext i16 %38 to i32
  %40 = icmp eq i32 %39, 0
  br i1 %40, label %41, label %45

41:                                               ; preds = %4
  %42 = load ptr, ptr %6, align 8
  %43 = load ptr, ptr %9, align 8
  %44 = call ptr @expert_add_info(ptr noundef %42, ptr noundef %43, ptr noundef @ei_calibration_header)
  br label %45

45:                                               ; preds = %41, %4
  %46 = load ptr, ptr %10, align 8
  %47 = load i32, ptr @hf_calibration_sequence_number, align 4
  %48 = load ptr, ptr %5, align 8
  %49 = load i32, ptr %11, align 4
  %50 = load i32, ptr %12, align 4
  %51 = call ptr @proto_tree_add_item(ptr noundef %46, i32 noundef %47, ptr noundef %48, i32 noundef %49, i32 noundef %50, i32 noundef 0)
  %52 = load i32, ptr %12, align 4
  %53 = load i32, ptr %11, align 4
  %54 = add i32 %53, %52
  store i32 %54, ptr %11, align 4
  %55 = load i16, ptr %13, align 2
  %56 = zext i16 %55 to i32
  %57 = icmp eq i32 %56, 0
  br i1 %57, label %58, label %100

58:                                               ; preds = %45
  store i32 2, ptr %12, align 4
  %59 = load ptr, ptr %5, align 8
  %60 = load i32, ptr %11, align 4
  %61 = load i32, ptr %12, align 4
  call void @tvb_ensure_bytes_exist(ptr noundef %59, i32 noundef %60, i32 noundef %61)
  %62 = load ptr, ptr %10, align 8
  %63 = load i32, ptr @hf_calibration_first_sequence_number, align 4
  %64 = load ptr, ptr %5, align 8
  %65 = load i32, ptr %11, align 4
  %66 = load i32, ptr %12, align 4
  %67 = call ptr @proto_tree_add_item(ptr noundef %62, i32 noundef %63, ptr noundef %64, i32 noundef %65, i32 noundef %66, i32 noundef 0)
  %68 = load i32, ptr %12, align 4
  %69 = load i32, ptr %11, align 4
  %70 = add i32 %69, %68
  store i32 %70, ptr %11, align 4
  store i32 2, ptr %12, align 4
  %71 = load ptr, ptr %5, align 8
  %72 = load i32, ptr %11, align 4
  %73 = load i32, ptr %12, align 4
  call void @tvb_ensure_bytes_exist(ptr noundef %71, i32 noundef %72, i32 noundef %73)
  %74 = load ptr, ptr %10, align 8
  %75 = load i32, ptr @hf_calibration_last_sequence_number, align 4
  %76 = load ptr, ptr %5, align 8
  %77 = load i32, ptr %11, align 4
  %78 = load i32, ptr %12, align 4
  %79 = call ptr @proto_tree_add_item(ptr noundef %74, i32 noundef %75, ptr noundef %76, i32 noundef %77, i32 noundef %78, i32 noundef 0)
  %80 = load i32, ptr %12, align 4
  %81 = load i32, ptr %11, align 4
  %82 = add i32 %81, %80
  store i32 %82, ptr %11, align 4
  call void @llvm.lifetime.start.p0(i64 4, ptr %14) #6
  %83 = load ptr, ptr %5, align 8
  %84 = load i32, ptr %11, align 4
  %85 = call i32 @tvb_reported_length_remaining(ptr noundef %83, i32 noundef %84)
  store i32 %85, ptr %14, align 4
  call void @llvm.lifetime.start.p0(i64 8, ptr %15) #6
  %86 = load ptr, ptr %10, align 8
  %87 = load i32, ptr @hf_calibration_name, align 4
  %88 = load ptr, ptr %5, align 8
  %89 = load i32, ptr %11, align 4
  %90 = load i32, ptr %14, align 4
  %91 = call ptr @proto_tree_add_item(ptr noundef %86, i32 noundef %87, ptr noundef %88, i32 noundef %89, i32 noundef %90, i32 noundef 2)
  store ptr %91, ptr %15, align 8
  call void @llvm.lifetime.start.p0(i64 8, ptr %16) #6
  %92 = load ptr, ptr %15, align 8
  %93 = load i32, ptr @ett_calibration_lines, align 4
  %94 = call ptr @proto_item_add_subtree(ptr noundef %92, i32 noundef %93)
  store ptr %94, ptr %16, align 8
  %95 = load ptr, ptr %6, align 8
  %96 = load ptr, ptr %5, align 8
  %97 = load i32, ptr %11, align 4
  %98 = load ptr, ptr %16, align 8
  %99 = load i32, ptr @hf_calibration_name_line, align 4
  call void @add_split_lines(ptr noundef %95, ptr noundef %96, i32 noundef %97, ptr noundef %98, i32 noundef %99)
  call void @llvm.lifetime.end.p0(i64 8, ptr %16) #6
  call void @llvm.lifetime.end.p0(i64 8, ptr %15) #6
  call void @llvm.lifetime.end.p0(i64 4, ptr %14) #6
  br label %118

100:                                              ; preds = %45
  call void @llvm.lifetime.start.p0(i64 4, ptr %17) #6
  %101 = load ptr, ptr %5, align 8
  %102 = load i32, ptr %11, align 4
  %103 = call i32 @tvb_reported_length_remaining(ptr noundef %101, i32 noundef %102)
  store i32 %103, ptr %17, align 4
  call void @llvm.lifetime.start.p0(i64 8, ptr %18) #6
  %104 = load ptr, ptr %10, align 8
  %105 = load i32, ptr @hf_calibration_chunk, align 4
  %106 = load ptr, ptr %5, align 8
  %107 = load i32, ptr %11, align 4
  %108 = load i32, ptr %17, align 4
  %109 = call ptr @proto_tree_add_item(ptr noundef %104, i32 noundef %105, ptr noundef %106, i32 noundef %107, i32 noundef %108, i32 noundef 2)
  store ptr %109, ptr %18, align 8
  call void @llvm.lifetime.start.p0(i64 8, ptr %19) #6
  %110 = load ptr, ptr %18, align 8
  %111 = load i32, ptr @ett_calibration_lines, align 4
  %112 = call ptr @proto_item_add_subtree(ptr noundef %110, i32 noundef %111)
  store ptr %112, ptr %19, align 8
  %113 = load ptr, ptr %6, align 8
  %114 = load ptr, ptr %5, align 8
  %115 = load i32, ptr %11, align 4
  %116 = load ptr, ptr %19, align 8
  %117 = load i32, ptr @hf_calibration_chunk_line, align 4
  call void @add_split_lines(ptr noundef %113, ptr noundef %114, i32 noundef %115, ptr noundef %116, i32 noundef %117)
  call void @llvm.lifetime.end.p0(i64 8, ptr %19) #6
  call void @llvm.lifetime.end.p0(i64 8, ptr %18) #6
  call void @llvm.lifetime.end.p0(i64 4, ptr %17) #6
  br label %118

118:                                              ; preds = %100, %58
  %119 = load ptr, ptr %5, align 8
  %120 = call i32 @tvb_captured_length(ptr noundef %119)
  call void @llvm.lifetime.end.p0(i64 2, ptr %13) #6
  call void @llvm.lifetime.end.p0(i64 4, ptr %12) #6
  call void @llvm.lifetime.end.p0(i64 4, ptr %11) #6
  call void @llvm.lifetime.end.p0(i64 8, ptr %10) #6
  call void @llvm.lifetime.end.p0(i64 8, ptr %9) #6
  ret i32 %120
}