; Function Attrs: null_pointer_is_valid sspstrong uwtable
define internal i32 @dissect_calibration(ptr noundef %0, ptr noundef %1, ptr noundef %2, ptr readnone captures(none) %3) #0 {
  %5 = getelementptr inbounds nuw i8, ptr %1, i64 8
  %6 = load ptr, ptr %5, align 8
  tail call void @col_set_str(ptr noundef %6, i32 noundef 35, ptr noundef nonnull @.str.1)
  %7 = load ptr, ptr %5, align 8
  tail call void @col_set_str(ptr noundef %7, i32 noundef 25, ptr noundef nonnull @.str)
  %8 = load i32, ptr @h_protocol_calibration, align 4
  %9 = tail call ptr @proto_tree_add_item(ptr noundef %2, i32 noundef %8, ptr noundef %0, i32 noundef 0, i32 noundef -1, i32 noundef 0)
  %10 = load i32, ptr @ett_protocol_calibration, align 4
  %11 = tail call ptr @proto_item_add_subtree(ptr noundef %9, i32 noundef %10)
  tail call void @tvb_ensure_bytes_exist(ptr noundef %0, i32 noundef 0, i32 noundef 2)
  %12 = tail call zeroext i16 @tvb_get_uint16(ptr noundef %0, i32 noundef 0, i32 noundef 0)
  %13 = icmp eq i16 %12, 0
  br i1 %13, label %14, label %.critedge

14:                                               ; preds = %4
  %15 = tail call ptr @expert_add_info(ptr noundef %1, ptr noundef %9, ptr noundef nonnull @ei_calibration_header)
  %16 = load i32, ptr @hf_calibration_sequence_number, align 4
  %17 = tail call ptr @proto_tree_add_item(ptr noundef %11, i32 noundef %16, ptr noundef %0, i32 noundef 0, i32 noundef 2, i32 noundef 0)
  tail call void @tvb_ensure_bytes_exist(ptr noundef %0, i32 noundef 2, i32 noundef 2)
  %18 = load i32, ptr @hf_calibration_first_sequence_number, align 4
  %19 = tail call ptr @proto_tree_add_item(ptr noundef %11, i32 noundef %18, ptr noundef %0, i32 noundef 2, i32 noundef 2, i32 noundef 0)
  tail call void @tvb_ensure_bytes_exist(ptr noundef %0, i32 noundef 4, i32 noundef 2)
  br label %.critedge

.critedge:                                        ; preds = %4, %14
  %hf_calibration_sequence_number.sink = phi ptr [ @hf_calibration_last_sequence_number, %14 ], [ @hf_calibration_sequence_number, %4 ]
  %.sink68 = phi i32 [ 4, %14 ], [ 0, %4 ]
  %.sink66 = phi i32 [ 6, %14 ], [ 2, %4 ]
  %hf_calibration_chunk.sink = phi ptr [ @hf_calibration_name, %14 ], [ @hf_calibration_chunk, %4 ]
  %hf_calibration_chunk_line.sink = phi ptr [ @hf_calibration_name_line, %14 ], [ @hf_calibration_chunk_line, %4 ]
  %20 = load i32, ptr %hf_calibration_sequence_number.sink, align 4
  %21 = tail call ptr @proto_tree_add_item(ptr noundef %11, i32 noundef %20, ptr noundef %0, i32 noundef %.sink68, i32 noundef 2, i32 noundef 0)
  %22 = tail call i32 @tvb_reported_length_remaining(ptr noundef %0, i32 noundef %.sink66)
  %23 = load i32, ptr %hf_calibration_chunk.sink, align 4
  %24 = tail call ptr @proto_tree_add_item(ptr noundef %11, i32 noundef %23, ptr noundef %0, i32 noundef %.sink66, i32 noundef %22, i32 noundef 2)
  %25 = load i32, ptr @ett_calibration_lines, align 4
  %26 = tail call ptr @proto_item_add_subtree(ptr noundef %24, i32 noundef %25)
  %27 = load i32, ptr %hf_calibration_chunk_line.sink, align 4
  tail call fastcc void @add_split_lines(ptr noundef %1, ptr noundef %0, i32 noundef %.sink66, ptr noundef %26, i32 noundef %27)
  %28 = tail call i32 @tvb_captured_length(ptr noundef %0)
  ret i32 %28
}